(dp1
S'OriginalConfig'
p2
ccopy_reg
_reconstructor
p3
(cWMCore.Configuration
Configuration
p4
c__builtin__
object
p5
NtRp6
(dp7
S'Site'
p8
g3
(cWMCore.Configuration
ConfigSection
p9
g5
NtRp10
(dp11
S'_internal_skipChecks'
p12
I00
sS'_internal_documentation'
p13
S''
sS'_internal_settings'
p14
c__builtin__
set
p15
((lp16
S'storageSite'
p17
atRp18
sS'_internal_name'
p19
g8
sS'_internal_docstrings'
p20
(dp21
sS'_internal_children'
p22
g15
((ltRp23
sg17
S'T2_CH_CERN'
p24
sS'_internal_parent_ref'
p25
NsbsS'_internal_sections'
p26
(lp27
S'General'
p28
aS'JobType'
p29
aS'Data'
p30
ag8
aS'User'
p31
aS'Debug'
p32
asg28
g3
(g9
g5
NtRp33
(dp34
S'transferLogs'
p35
I00
sg12
I00
sg13
S''
sg14
g15
((lp36
g35
aS'transferOutputs'
p37
aS'workArea'
p38
aS'requestName'
p39
atRp40
sg19
g28
sg20
(dp41
sg37
I01
sg22
g15
((ltRp42
sg39
S'prefiringanalysis2017_V2'
p43
sg25
Nsg38
S'crab_projects'
p44
sbsS'_internal_webapps'
p45
(lp46
sg31
g3
(g9
g5
NtRp47
(dp48
g12
I00
sg13
S''
sg14
g15
((ltRp49
sg19
g31
sg20
(dp50
sg22
g15
((ltRp51
sg25
NsbsS'_internal_components'
p52
(lp53
sg32
g3
(g9
g5
NtRp54
(dp55
g12
I00
sg13
S''
sg14
g15
((ltRp56
sg19
g32
sg20
(dp57
sg22
g15
((ltRp58
sg25
Nsbsg30
g3
(g9
g5
NtRp59
(dp60
S'inputDataset'
p61
S'/ZeroBias2/Run2017F-05Apr2018-v1/RAW-RECO'
p62
sg12
I00
sS'splitting'
p63
S'FileBased'
p64
sS'unitsPerJob'
p65
I10
sg13
S''
sg14
g15
((lp66
g61
aS'publication'
p67
ag65
aS'inputDBS'
p68
ag63
aS'runRange'
p69
atRp70
sg19
g30
sg68
S'global'
p71
sg20
(dp72
sg22
g15
((ltRp73
sg25
Nsg69
S'306425'
p74
sg67
I00
sbsg29
g3
(g9
g5
NtRp75
(dp76
S'outputFiles'
p77
(lp78
S'Histo_L1Prefiring.root'
p79
asg12
I00
sg13
S''
sg14
g15
((lp80
g77
aS'maxMemoryMB'
p81
aS'pluginName'
p82
aS'allowUndistributedCMSSW'
p83
aS'psetName'
p84
aS'maxJobRuntimeMin'
p85
atRp86
sg19
g29
sg20
(dp87
sg82
S'Analysis'
p88
sg22
g15
((ltRp89
sg83
I01
sg84
S'conf.py'
p90
sg25
Nsg85
I2600
sg81
I2500
sbsbsS'voGroup'
p91
S''
sS'Server'
p92
S'cmsweb.cern.ch'
p93
sS'instance'
p94
S'prod'
p95
sS'RequestName'
p96
V190729_104747:khurana_crab_prefiringanalysis2017_V2
p97
sS'voRole'
p98
S'NULL'
p99
sS'Port'
p100
S''
s.